-----BEGIN EC PARAMETERS-----
BggqhkjOPQMBBw==
-----END EC PARAMETERS-----
-----BEGIN EC PRIVATE KEY-----
MHcCAQEEIIDszFbu+wjl3bYqh2yqW6r6QYYxiPxD7fDES+fznRe4oAoGCCqGSM49
AwEHoUQDQgAEUFRQO/51gqfZSBZSs3TVIa4+FTzmbV7g2ZHHHbbhfTg/sPuQNDRz
uu1j48zFAqH7TslQ/b7ze2WUE03U40uMvg==
-----END EC PRIVATE KEY-----
Certificate:
    Data:
        Version: 3 (0x2)
        Serial Number:
            58:77:ae:96:ec:37:a2:81:5d:af:93:ac:a1:b6:0c:e0:26:0f:32:42
        Signature Algorithm: ecdsa-with-SHA256
        Issuer: C = FR, L = Limoges, O = "<ne fait pas partie du certificat>", OU = student, CN = localhost
        Validity
            Not Before: May  5 11:10:21 2020 GMT
            Not After : May  3 11:10:21 2030 GMT
        Subject: C = FR, L = Limoges, O = CertifPlus, OU = web_service, CN = localhost
        Subject Public Key Info:
            Public Key Algorithm: id-ecPublicKey
                Public-Key: (256 bit)
                pub:
                    04:50:54:50:3b:fe:75:82:a7:d9:48:16:52:b3:74:
                    d5:21:ae:3e:15:3c:e6:6d:5e:e0:d9:91:c7:1d:b6:
                    e1:7d:38:3f:b0:fb:90:34:34:73:ba:ed:63:e3:cc:
                    c5:02:a1:fb:4e:c9:50:fd:be:f3:7b:65:94:13:4d:
                    d4:e3:4b:8c:be
                ASN1 OID: prime256v1
                NIST CURVE: P-256
        X509v3 extensions:
            X509v3 Basic Constraints: critical
                CA:FALSE
    Signature Algorithm: ecdsa-with-SHA256
         30:45:02:20:75:36:a7:ca:01:32:a8:f2:fb:d0:33:42:89:0e:
         48:69:a1:b5:77:c3:8c:e8:61:1a:26:ef:ce:2b:38:19:22:d3:
         02:21:00:81:a8:e5:cb:48:65:6e:09:6c:3a:cb:c7:d7:b3:ff:
         44:23:5d:e8:8a:96:90:a5:b2:bf:da:be:35:56:4c:c0:f8
-----BEGIN CERTIFICATE-----
MIIB4jCCAYigAwIBAgIUWHeuluw3ooFdr5OsobYM4CYPMkIwCgYIKoZIzj0EAwIw
cjELMAkGA1UEBhMCRlIxEDAOBgNVBAcMB0xpbW9nZXMxKzApBgNVBAoMIjxuZSBm
YWl0IHBhcyBwYXJ0aWUgZHUgY2VydGlmaWNhdD4xEDAOBgNVBAsMB3N0dWRlbnQx
EjAQBgNVBAMMCWxvY2FsaG9zdDAeFw0yMDA1MDUxMTEwMjFaFw0zMDA1MDMxMTEw
MjFaMF4xCzAJBgNVBAYTAkZSMRAwDgYDVQQHDAdMaW1vZ2VzMRMwEQYDVQQKDApD
ZXJ0aWZQbHVzMRQwEgYDVQQLDAt3ZWJfc2VydmljZTESMBAGA1UEAwwJbG9jYWxo
b3N0MFkwEwYHKoZIzj0CAQYIKoZIzj0DAQcDQgAEUFRQO/51gqfZSBZSs3TVIa4+
FTzmbV7g2ZHHHbbhfTg/sPuQNDRzuu1j48zFAqH7TslQ/b7ze2WUE03U40uMvqMQ
MA4wDAYDVR0TAQH/BAIwADAKBggqhkjOPQQDAgNIADBFAiB1NqfKATKo8vvQM0KJ
DkhpobV3w4zoYRom784rOBki0wIhAIGo5ctIZW4JbDrLx9ez/0QjXeiKlpClsr/a
vjVWTMD4
-----END CERTIFICATE-----
