Certificate:
    Data:
        Version: 3 (0x2)
        Serial Number:
            3f:24:d9:73:da:d4:c3:9f:e3:66:2f:e4:58:c3:f5:cf:62:3f:c7:24
        Signature Algorithm: ecdsa-with-SHA256
        Issuer: C = FR, L = Limoges, O = "<ne fait pas partie du certificat>", OU = student, CN = localhost
        Validity
            Not Before: May  5 11:10:21 2020 GMT
            Not After : Jun  4 11:10:21 2020 GMT
        Subject: C = FR, L = Limoges, O = "<ne fait pas partie du certificat>", OU = student, CN = localhost
        Subject Public Key Info:
            Public Key Algorithm: id-ecPublicKey
                Public-Key: (256 bit)
                pub:
                    04:2a:b6:63:b5:3e:05:fd:55:f0:7b:ec:7f:40:0f:
                    3c:53:6f:40:ef:5d:39:b3:17:f6:34:4b:21:b3:76:
                    59:5c:3c:d7:d6:3e:8e:8a:7d:2e:6b:67:31:25:18:
                    28:32:6b:ce:8a:1e:2a:3b:6d:13:d1:8f:cd:69:6e:
                    4b:41:a3:1a:09
                ASN1 OID: prime256v1
                NIST CURVE: P-256
        X509v3 extensions:
            X509v3 Basic Constraints: 
                CA:TRUE
    Signature Algorithm: ecdsa-with-SHA256
         30:45:02:21:00:9e:08:91:c2:37:5c:b4:dc:be:68:25:ea:c8:
         2b:e9:1e:d7:df:e8:a5:e0:68:ed:df:bf:2f:95:9c:f5:33:13:
         58:02:20:40:3a:20:57:28:37:cf:b4:d3:28:41:4c:36:76:77:
         42:80:d3:c4:7a:4a:a7:4e:cd:e6:4c:c2:ae:48:0f:f2:56
-----BEGIN CERTIFICATE-----
MIIB9jCCAZygAwIBAgIUPyTZc9rUw5/jZi/kWMP1z2I/xyQwCgYIKoZIzj0EAwIw
cjELMAkGA1UEBhMCRlIxEDAOBgNVBAcMB0xpbW9nZXMxKzApBgNVBAoMIjxuZSBm
YWl0IHBhcyBwYXJ0aWUgZHUgY2VydGlmaWNhdD4xEDAOBgNVBAsMB3N0dWRlbnQx
EjAQBgNVBAMMCWxvY2FsaG9zdDAeFw0yMDA1MDUxMTEwMjFaFw0yMDA2MDQxMTEw
MjFaMHIxCzAJBgNVBAYTAkZSMRAwDgYDVQQHDAdMaW1vZ2VzMSswKQYDVQQKDCI8
bmUgZmFpdCBwYXMgcGFydGllIGR1IGNlcnRpZmljYXQ+MRAwDgYDVQQLDAdzdHVk
ZW50MRIwEAYDVQQDDAlsb2NhbGhvc3QwWTATBgcqhkjOPQIBBggqhkjOPQMBBwNC
AAQqtmO1PgX9VfB77H9ADzxTb0DvXTmzF/Y0SyGzdllcPNfWPo6KfS5rZzElGCgy
a86KHio7bRPRj81pbktBoxoJoxAwDjAMBgNVHRMEBTADAQH/MAoGCCqGSM49BAMC
A0gAMEUCIQCeCJHCN1y03L5oJerIK+ke19/opeBo7d+/L5Wc9TMTWAIgQDogVyg3
z7TTKEFMNnZ3QoDTxHpKp07N5kzCrkgP8lY=
-----END CERTIFICATE-----
